; Function Attrs: null_pointer_is_valid sspstrong uwtable
define internal noundef i32 @add_string_param_update_parent(ptr noundef %0, i32 noundef %1, i32 noundef %2, ptr noundef readonly captures(none) %3, ptr noundef %4, i32 %5, i32 noundef %6, ptr readnone captures(none) %7) #0 {
  %9 = alloca ptr, align 8
  call void @llvm.lifetime.start.p0(i64 8, ptr nonnull %9) #9
  %10 = icmp sgt i32 %6, 0
  br i1 %10, label %12, label %11

11:                                               ; preds = %8
  tail call void (ptr, ...) @proto_report_dissector_bug(ptr noundef nonnull @.str.654, ptr noundef nonnull @.str.655, i32 noundef 316, ptr noundef nonnull @.str.669) #11
  unreachable

12:                                               ; preds = %8
  %13 = getelementptr inbounds nuw i8, ptr %3, i64 408
  %14 = load ptr, ptr %13, align 8
  %15 = call ptr @proto_tree_add_item_ret_string(ptr noundef %4, i32 noundef %6, ptr noundef %0, i32 noundef %1, i32 noundef %2, i32 noundef 0, ptr noundef %14, ptr noundef nonnull %9)
  %16 = call ptr @proto_item_get_parent(ptr noundef %15)
  %17 = load ptr, ptr %13, align 8
  %18 = load ptr, ptr %9, align 8
  %19 = call i64 @strlen(ptr noundef %18) #10
  %20 = call ptr @format_text(ptr noundef %17, ptr noundef %18, i64 noundef %19)
  call void (ptr, ptr, ...) @proto_item_append_text(ptr noundef %16, ptr noundef nonnull @.str.670, ptr noundef %20)
  %21 = add i32 %2, %1
  call void @llvm.lifetime.end.p0(i64 8, ptr nonnull %9) #9
  ret i32 %21
}